target datalayout = "e-m:e-p270:32:32-p271:32:32-p272:64:64-i64:64-i128:128-f80:128-n8:16:32:64-S128"
target triple = "x86_64-pc-linux-gnu"

; Function Attrs: mustprogress nounwind uwtable
define linkonce_odr noundef i32 @_Z5dtMaxIiET_S0_S0_(i32 noundef %0, i32 noundef %1) #1 comdat {
  %3 = alloca i32, align 4
  %4 = alloca i32, align 4
  store i32 %0, ptr %3, align 4
  store i32 %1, ptr %4, align 4
  %5 = load i32, ptr %3, align 4
  %6 = load i32, ptr %4, align 4
  %7 = icmp sgt i32 %5, %6
  br i1 %7, label %8, label %10

8:                                                ; preds = %2
  %9 = load i32, ptr %3, align 4
  br label %12

10:                                               ; preds = %2
  %11 = load i32, ptr %4, align 4
  br label %12

12:                                               ; preds = %10, %8
  %13 = phi i32 [ %9, %8 ], [ %11, %10 ]
  ret i32 %13
}

; Function Attrs: mustprogress nounwind uwtable
define linkonce_odr noundef i32 @_Z5dtMinIiET_S0_S0_(i32 noundef %0, i32 noundef %1) #1 comdat {
  %3 = alloca i32, align 4
  %4 = alloca i32, align 4
  store i32 %0, ptr %3, align 4
  store i32 %1, ptr %4, align 4
  %5 = load i32, ptr %3, align 4
  %6 = load i32, ptr %4, align 4
  %7 = icmp slt i32 %5, %6
  br i1 %7, label %8, label %10

8:                                                ; preds = %2
  %9 = load i32, ptr %3, align 4
  br label %12

10:                                               ; preds = %2
  %11 = load i32, ptr %4, align 4
  br label %12

12:                                               ; preds = %10, %8
  %13 = phi i32 [ %9, %8 ], [ %11, %10 ]
  ret i32 %13
}

; Function Attrs: mustprogress uwtable
define noundef i32 @_Z25dtMergeCorridorStartMovedPjiiPKji(ptr noundef %0, i32 noundef %1, i32 noundef %2, ptr noundef %3, i32 noundef %4) #0 {
  %6 = alloca i32, align 4
  %7 = alloca ptr, align 8
  %8 = alloca i32, align 4
  %9 = alloca i32, align 4
  %10 = alloca ptr, align 8
  %11 = alloca i32, align 4
  %12 = alloca i32, align 4
  %13 = alloca i32, align 4
  %14 = alloca i32, align 4
  %15 = alloca i8, align 1
  %16 = alloca i32, align 4
  %17 = alloca i32, align 4
  %18 = alloca i32, align 4
  %19 = alloca i32, align 4
  %20 = alloca i32, align 4
  %21 = alloca i32, align 4
  store ptr %0, ptr %7, align 8
  store i32 %1, ptr %8, align 4
  store i32 %2, ptr %9, align 4
  store ptr %3, ptr %10, align 8
  store i32 %4, ptr %11, align 4
  store i32 -1, ptr %12, align 4
  store i32 -1, ptr %13, align 4
  %22 = load i32, ptr %8, align 4
  %23 = sub nsw i32 %22, 1
  store i32 %23, ptr %14, align 4
  br label %24

24:                                               ; preds = %57, %5
  %25 = load i32, ptr %14, align 4
  %26 = icmp sge i32 %25, 0
  br i1 %26, label %27, label %60

27:                                               ; preds = %24
  store i8 0, ptr %15, align 1
  %28 = load i32, ptr %11, align 4
  %29 = sub nsw i32 %28, 1
  store i32 %29, ptr %16, align 4
  br label %30

30:                                               ; preds = %49, %27
  %31 = load i32, ptr %16, align 4
  %32 = icmp sge i32 %31, 0
  br i1 %32, label %33, label %52

33:                                               ; preds = %30
  %34 = load ptr, ptr %7, align 8
  %35 = load i32, ptr %14, align 4
  %36 = sext i32 %35 to i64
  %37 = getelementptr inbounds i32, ptr %34, i64 %36
  %38 = load i32, ptr %37, align 4
  %39 = load ptr, ptr %10, align 8
  %40 = load i32, ptr %16, align 4
  %41 = sext i32 %40 to i64
  %42 = getelementptr inbounds i32, ptr %39, i64 %41
  %43 = load i32, ptr %42, align 4
  %44 = icmp eq i32 %38, %43
  br i1 %44, label %45, label %48

45:                                               ; preds = %33
  %46 = load i32, ptr %14, align 4
  store i32 %46, ptr %12, align 4
  %47 = load i32, ptr %16, align 4
  store i32 %47, ptr %13, align 4
  store i8 1, ptr %15, align 1
  br label %48

48:                                               ; preds = %45, %33
  br label %49

49:                                               ; preds = %48
  %50 = load i32, ptr %16, align 4
  %51 = add nsw i32 %50, -1
  store i32 %51, ptr %16, align 4
  br label %30, !llvm.loop !4

52:                                               ; preds = %30
  %53 = load i8, ptr %15, align 1
  %54 = trunc i8 %53 to i1
  br i1 %54, label %55, label %56

55:                                               ; preds = %52
  br label %60

56:                                               ; preds = %52
  br label %57

57:                                               ; preds = %56
  %58 = load i32, ptr %14, align 4
  %59 = add nsw i32 %58, -1
  store i32 %59, ptr %14, align 4
  br label %24, !llvm.loop !6

60:                                               ; preds = %55, %24
  %61 = load i32, ptr %12, align 4
  %62 = icmp eq i32 %61, -1
  br i1 %62, label %66, label %63

63:                                               ; preds = %60
  %64 = load i32, ptr %13, align 4
  %65 = icmp eq i32 %64, -1
  br i1 %65, label %66, label %68

66:                                               ; preds = %63, %60
  %67 = load i32, ptr %8, align 4
  store i32 %67, ptr %6, align 4
  br label %132

68:                                               ; preds = %63
  %69 = load i32, ptr %11, align 4
  %70 = load i32, ptr %13, align 4
  %71 = sub nsw i32 %69, %70
  store i32 %71, ptr %17, align 4
  %72 = load i32, ptr %12, align 4
  %73 = add nsw i32 %72, 1
  %74 = load i32, ptr %8, align 4
  %75 = call noundef i32 @_Z5dtMinIiET_S0_S0_(i32 noundef %73, i32 noundef %74)
  store i32 %75, ptr %18, align 4
  %76 = load i32, ptr %8, align 4
  %77 = load i32, ptr %18, align 4
  %78 = sub nsw i32 %76, %77
  %79 = call noundef i32 @_Z5dtMaxIiET_S0_S0_(i32 noundef 0, i32 noundef %78)
  store i32 %79, ptr %19, align 4
  %80 = load i32, ptr %17, align 4
  %81 = load i32, ptr %19, align 4
  %82 = add nsw i32 %80, %81
  %83 = load i32, ptr %9, align 4
  %84 = icmp sgt i32 %82, %83
  br i1 %84, label %85, label %89

85:                                               ; preds = %68
  %86 = load i32, ptr %9, align 4
  %87 = load i32, ptr %17, align 4
  %88 = sub nsw i32 %86, %87
  store i32 %88, ptr %19, align 4
  br label %89

89:                                               ; preds = %85, %68
  %90 = load i32, ptr %19, align 4
  %91 = icmp sgt i32 %90, 0
  br i1 %91, label %92, label %104

92:                                               ; preds = %89
  %93 = load ptr, ptr %7, align 8
  %94 = load i32, ptr %17, align 4
  %95 = sext i32 %94 to i64
  %96 = getelementptr inbounds i32, ptr %93, i64 %95
  %97 = load ptr, ptr %7, align 8
  %98 = load i32, ptr %18, align 4
  %99 = sext i32 %98 to i64
  %100 = getelementptr inbounds i32, ptr %97, i64 %99
  %101 = load i32, ptr %19, align 4
  %102 = sext i32 %101 to i64
  %103 = mul i64 %102, 4
  call void @llvm.memmove.p0.p0.i64(ptr align 4 %96, ptr align 4 %100, i64 %103, i1 false)
  br label %104

104:                                              ; preds = %92, %89
  store i32 0, ptr %20, align 4
  %105 = load i32, ptr %17, align 4
  %106 = load i32, ptr %9, align 4
  %107 = call noundef i32 @_Z5dtMinIiET_S0_S0_(i32 noundef %105, i32 noundef %106)
  store i32 %107, ptr %21, align 4
  br label %108

108:                                              ; preds = %125, %104
  %109 = load i32, ptr %20, align 4
  %110 = load i32, ptr %21, align 4
  %111 = icmp slt i32 %109, %110
  br i1 %111, label %112, label %128

112:                                              ; preds = %108
  %113 = load ptr, ptr %10, align 8
  %114 = load i32, ptr %11, align 4
  %115 = sub nsw i32 %114, 1
  %116 = load i32, ptr %20, align 4
  %117 = sub nsw i32 %115, %116
  %118 = sext i32 %117 to i64
  %119 = getelementptr inbounds i32, ptr %113, i64 %118
  %120 = load i32, ptr %119, align 4
  %121 = load ptr, ptr %7, align 8
  %122 = load i32, ptr %20, align 4
  %123 = sext i32 %122 to i64
  %124 = getelementptr inbounds i32, ptr %121, i64 %123
  store i32 %120, ptr %124, align 4
  br label %125

125:                                              ; preds = %112
  %126 = load i32, ptr %20, align 4
  %127 = add nsw i32 %126, 1
  store i32 %127, ptr %20, align 4
  br label %108, !llvm.loop !7

128:                                              ; preds = %108
  %129 = load i32, ptr %17, align 4
  %130 = load i32, ptr %19, align 4
  %131 = add nsw i32 %129, %130
  store i32 %131, ptr %6, align 4
  br label %132

132:                                              ; preds = %128, %66
  %133 = load i32, ptr %6, align 4
  ret i32 %133
}