; Function Attrs: mustprogress nofree norecurse nosync nounwind memory(argmem: readwrite) uwtable
define noundef i32 @_Z25dtMergeCorridorStartMovedPjiiPKji(ptr noundef captures(none) %0, i32 noundef %1, i32 noundef %2, ptr noundef readonly captures(none) %3, i32 noundef %4) local_unnamed_addr #0 {
  %6 = icmp sgt i32 %4, 0
  br i1 %6, label %.split.us.preheader, label %.split65.us.thread

.split.us.preheader:                              ; preds = %5
  %7 = zext nneg i32 %4 to i64
  %8 = zext i32 %1 to i64
  br label %.split.us

.split.us:                                        ; preds = %.split.us.preheader, %._crit_edge.us
  %indvars.iv69 = phi i64 [ %8, %.split.us.preheader ], [ %indvars.iv.next70, %._crit_edge.us ]
  %.049.us = phi i32 [ -1, %.split.us.preheader ], [ %.352.us, %._crit_edge.us ]
  %.048.us = phi i32 [ -1, %.split.us.preheader ], [ %.3.us, %._crit_edge.us ]
  %indvars.iv.next70 = add nsw i64 %indvars.iv69, -1
  %indvars = trunc i64 %indvars.iv.next70 to i32
  %9 = trunc nuw i64 %indvars.iv69 to i32
  %10 = icmp sgt i32 %9, 0
  br i1 %10, label %.preheader.us, label %.split65.us

11:                                               ; preds = %.preheader.us, %11
  %indvars.iv = phi i64 [ %7, %.preheader.us ], [ %indvars.iv.next, %11 ]
  %.261.us = phi i32 [ %.048.us, %.preheader.us ], [ %.3.us, %11 ]
  %.25160.us = phi i32 [ %.049.us, %.preheader.us ], [ %.352.us, %11 ]
  %.05458.us = phi i1 [ false, %.preheader.us ], [ %.155.us, %11 ]
  %indvars.iv.next = add nsw i64 %indvars.iv, -1
  %12 = getelementptr inbounds nuw i32, ptr %3, i64 %indvars.iv.next
  %13 = load i32, ptr %12, align 4
  %14 = icmp eq i32 %19, %13
  %.155.us = select i1 %14, i1 true, i1 %.05458.us
  %15 = trunc nuw nsw i64 %indvars.iv.next to i32
  %.352.us = select i1 %14, i32 %15, i32 %.25160.us
  %.3.us = select i1 %14, i32 %indvars, i32 %.261.us
  %16 = icmp sgt i64 %indvars.iv, 1
  br i1 %16, label %11, label %._crit_edge.us, !llvm.loop !4

.preheader.us:                                    ; preds = %.split.us
  %17 = and i64 %indvars.iv.next70, 4294967295
  %18 = getelementptr inbounds nuw i32, ptr %0, i64 %17
  %19 = load i32, ptr %18, align 4
  br label %11

._crit_edge.us:                                   ; preds = %11
  br i1 %.155.us, label %.split65.us, label %.split.us, !llvm.loop !6

.split65.us:                                      ; preds = %.split.us, %._crit_edge.us
  %.us-phi = phi i32 [ %.049.us, %.split.us ], [ %.352.us, %._crit_edge.us ]
  %.us-phi66 = phi i32 [ %.048.us, %.split.us ], [ %.3.us, %._crit_edge.us ]
  %20 = icmp eq i32 %.us-phi66, -1
  %21 = icmp eq i32 %.us-phi, -1
  %or.cond = select i1 %20, i1 true, i1 %21
  br i1 %or.cond, label %.split65.us.thread, label %22

22:                                               ; preds = %.split65.us
  %23 = sub nsw i32 %4, %.us-phi
  %24 = add nuw nsw i32 %.us-phi66, 1
  %25 = tail call noundef i32 @llvm.smin.i32(i32 %24, i32 %1)
  %26 = sub nsw i32 %1, %25
  %27 = add nsw i32 %26, %23
  %28 = icmp sgt i32 %27, %2
  %29 = sub nsw i32 %2, %23
  %spec.select = select i1 %28, i32 %29, i32 %26
  %30 = icmp sgt i32 %spec.select, 0
  br i1 %30, label %31, label %38

31:                                               ; preds = %22
  %32 = sext i32 %23 to i64
  %33 = getelementptr inbounds i32, ptr %0, i64 %32
  %34 = sext i32 %25 to i64
  %35 = getelementptr inbounds i32, ptr %0, i64 %34
  %36 = zext nneg i32 %spec.select to i64
  %37 = shl nuw nsw i64 %36, 2
  tail call void @llvm.memmove.p0.p0.i64(ptr align 4 %33, ptr align 4 %35, i64 %37, i1 false)
  br label %38

38:                                               ; preds = %31, %22
  %39 = tail call noundef i32 @llvm.smin.i32(i32 %23, i32 %2)
  %40 = icmp sgt i32 %39, 0
  br i1 %40, label %.lr.ph.preheader, label %._crit_edge

.lr.ph.preheader:                                 ; preds = %38
  %wide.trip.count = zext nneg i32 %39 to i64
  br label %.lr.ph

.lr.ph:                                           ; preds = %.lr.ph.preheader, %.lr.ph
  %indvars.iv72 = phi i64 [ 0, %.lr.ph.preheader ], [ %indvars.iv.next73, %.lr.ph ]
  %41 = trunc i64 %indvars.iv72 to i32
  %42 = xor i32 %41, -1
  %43 = add i32 %4, %42
  %44 = sext i32 %43 to i64
  %45 = getelementptr inbounds i32, ptr %3, i64 %44
  %46 = load i32, ptr %45, align 4
  %47 = getelementptr inbounds nuw i32, ptr %0, i64 %indvars.iv72
  store i32 %46, ptr %47, align 4
  %indvars.iv.next73 = add nuw nsw i64 %indvars.iv72, 1
  %exitcond.not = icmp eq i64 %indvars.iv.next73, %wide.trip.count
  br i1 %exitcond.not, label %._crit_edge, label %.lr.ph, !llvm.loop !7

._crit_edge:                                      ; preds = %.lr.ph, %38
  %48 = add nsw i32 %spec.select, %23
  br label %.split65.us.thread

.split65.us.thread:                               ; preds = %5, %.split65.us, %._crit_edge
  %.0 = phi i32 [ %48, %._crit_edge ], [ %1, %.split65.us ], [ %1, %5 ]
  ret i32 %.0
}